target datalayout = "e-m:e-p270:32:32-p271:32:32-p272:64:64-i64:64-i128:128-f80:128-n8:16:32:64-S128"
target triple = "x86_64-pc-linux-gnu"

%struct.ScanKeyData = type { i32, i16, i16, i32, i32, %struct.FmgrInfo, i64 }
%struct.FmgrInfo = type { ptr, i32, i16, i8, i8, i8, ptr, ptr, ptr }

@criticalRelcachesBuilt = dso_local global i8 0, align 1
@.str.1 = private unnamed_addr constant [11 x i8] c"relcache.c\00", align 1
@MyDatabaseId = external global i32, align 4
@.str.48 = private unnamed_addr constant [56 x i8] c"cannot read pg_class without having selected a database\00", align 1
@__func__.ScanPgRelation = private unnamed_addr constant [15 x i8] c"ScanPgRelation\00", align 1

; Function Attrs: inlinehint nounwind uwtable
define internal i64 @ObjectIdGetDatum(i32 noundef %0) #3 {
  %2 = alloca i32, align 4
  store i32 %0, ptr %2, align 4
  %3 = load i32, ptr %2, align 4
  %4 = zext i32 %3 to i64
  ret i64 %4
}

; Function Attrs: nounwind uwtable
define internal ptr @ScanPgRelation(i32 noundef %0, i1 noundef zeroext %1, i1 noundef zeroext %2) #0 {
  %4 = alloca i32, align 4
  %5 = alloca i8, align 1
  %6 = alloca i8, align 1
  %7 = alloca ptr, align 8
  %8 = alloca ptr, align 8
  %9 = alloca ptr, align 8
  %10 = alloca [1 x %struct.ScanKeyData], align 16
  %11 = alloca ptr, align 8
  store i32 %0, ptr %4, align 4
  %12 = zext i1 %1 to i8
  store i8 %12, ptr %5, align 1
  %13 = zext i1 %2 to i8
  store i8 %13, ptr %6, align 1
  call void @llvm.lifetime.start.p0(i64 8, ptr %7) #11
  call void @llvm.lifetime.start.p0(i64 8, ptr %8) #11
  call void @llvm.lifetime.start.p0(i64 8, ptr %9) #11
  call void @llvm.lifetime.start.p0(i64 72, ptr %10) #11
  call void @llvm.lifetime.start.p0(i64 8, ptr %11) #11
  store ptr null, ptr %11, align 8
  %14 = load i32, ptr @MyDatabaseId, align 4
  %15 = icmp ne i32 %14, 0
  br i1 %15, label %27, label %16

16:                                               ; preds = %3
  br label %17

17:                                               ; preds = %16
  br i1 true, label %18, label %20

18:                                               ; preds = %17
  %19 = call zeroext i1 @errstart_cold(i32 noundef 22, ptr noundef null) #12
  br i1 %19, label %22, label %24

20:                                               ; preds = %17
  %21 = call zeroext i1 @errstart(i32 noundef 22, ptr noundef null)
  br i1 %21, label %22, label %24

22:                                               ; preds = %20, %18
  %23 = call i32 (ptr, ...) @errmsg_internal(ptr noundef @.str.48)
  call void @errfinish(ptr noundef @.str.1, i32 noundef 355, ptr noundef @__func__.ScanPgRelation)
  br label %24

24:                                               ; preds = %22, %20, %18
  unreachable

25:                                               ; No predecessors!
  br label %26

26:                                               ; preds = %25
  br label %27

27:                                               ; preds = %26, %3
  %28 = getelementptr inbounds [1 x %struct.ScanKeyData], ptr %10, i64 0, i64 0
  %29 = load i32, ptr %4, align 4
  %30 = call i64 @ObjectIdGetDatum(i32 noundef %29)
  call void @ScanKeyInit(ptr noundef %28, i16 noundef signext 1, i16 noundef zeroext 3, i32 noundef 184, i64 noundef %30)
  %31 = call ptr @table_open(i32 noundef 1259, i32 noundef 1)
  store ptr %31, ptr %8, align 8
  %32 = load i8, ptr %6, align 1, !range !4, !noundef !5
  %33 = trunc i8 %32 to i1
  br i1 %33, label %34, label %36

34:                                               ; preds = %27
  %35 = call ptr @GetNonHistoricCatalogSnapshot(i32 noundef 1259)
  store ptr %35, ptr %11, align 8
  br label %36

36:                                               ; preds = %34, %27
  %37 = load ptr, ptr %8, align 8
  %38 = load i8, ptr %5, align 1, !range !4, !noundef !5
  %39 = trunc i8 %38 to i1
  br i1 %39, label %40, label %43

40:                                               ; preds = %36
  %41 = load i8, ptr @criticalRelcachesBuilt, align 1, !range !4, !noundef !5
  %42 = trunc i8 %41 to i1
  br label %43

43:                                               ; preds = %40, %36
  %44 = phi i1 [ false, %36 ], [ %42, %40 ]
  %45 = load ptr, ptr %11, align 8
  %46 = getelementptr inbounds [1 x %struct.ScanKeyData], ptr %10, i64 0, i64 0
  %47 = call ptr @systable_beginscan(ptr noundef %37, i32 noundef 2662, i1 noundef zeroext %44, ptr noundef %45, i32 noundef 1, ptr noundef %46)
  store ptr %47, ptr %9, align 8
  %48 = load ptr, ptr %9, align 8
  %49 = call ptr @systable_getnext(ptr noundef %48)
  store ptr %49, ptr %7, align 8
  %50 = load ptr, ptr %7, align 8
  %51 = icmp ne ptr %50, null
  br i1 %51, label %52, label %55

52:                                               ; preds = %43
  %53 = load ptr, ptr %7, align 8
  %54 = call ptr @heap_copytuple(ptr noundef %53)
  store ptr %54, ptr %7, align 8
  br label %55

55:                                               ; preds = %52, %43
  %56 = load ptr, ptr %9, align 8
  call void @systable_endscan(ptr noundef %56)
  %57 = load ptr, ptr %8, align 8
  call void @table_close(ptr noundef %57, i32 noundef 1)
  %58 = load ptr, ptr %7, align 8
  call void @llvm.lifetime.end.p0(i64 8, ptr %11) #11
  call void @llvm.lifetime.end.p0(i64 72, ptr %10) #11
  call void @llvm.lifetime.end.p0(i64 8, ptr %9) #11
  call void @llvm.lifetime.end.p0(i64 8, ptr %8) #11
  call void @llvm.lifetime.end.p0(i64 8, ptr %7) #11
  ret ptr %58
}