; Function Attrs: nounwind uwtable
define internal fastcc ptr @ScanPgRelation(i32 noundef %0, i1 noundef zeroext %1, i1 noundef zeroext %2) unnamed_addr #0 {
  %4 = alloca [1 x %struct.ScanKeyData], align 16
  call void @llvm.lifetime.start.p0(i64 72, ptr nonnull %4) #13
  %5 = load i32, ptr @MyDatabaseId, align 4
  %.not = icmp eq i32 %5, 0
  br i1 %.not, label %6, label %9

6:                                                ; preds = %3
  %7 = tail call zeroext i1 @errstart_cold(i32 noundef 22, ptr noundef null) #14
  tail call void @llvm.assume(i1 %7)
  %8 = tail call i32 (ptr, ...) @errmsg_internal(ptr noundef nonnull @.str.48) #13
  tail call void @errfinish(ptr noundef nonnull @.str.1, i32 noundef 355, ptr noundef nonnull @__func__.ScanPgRelation) #13
  unreachable

9:                                                ; preds = %3
  %10 = zext i32 %0 to i64
  call void @ScanKeyInit(ptr noundef nonnull %4, i16 noundef signext 1, i16 noundef zeroext 3, i32 noundef 184, i64 noundef %10) #13
  %11 = call ptr @table_open(i32 noundef 1259, i32 noundef 1) #13
  br i1 %2, label %12, label %14

12:                                               ; preds = %9
  %13 = call ptr @GetNonHistoricCatalogSnapshot(i32 noundef 1259) #13
  br label %14

14:                                               ; preds = %12, %9
  %.0 = phi ptr [ %13, %12 ], [ null, %9 ]
  %15 = load i8, ptr @criticalRelcachesBuilt, align 1, !range !6
  %16 = trunc nuw i8 %15 to i1
  %17 = select i1 %1, i1 %16, i1 false
  %18 = call ptr @systable_beginscan(ptr noundef %11, i32 noundef 2662, i1 noundef zeroext %17, ptr noundef %.0, i32 noundef 1, ptr noundef nonnull %4) #13
  %19 = call ptr @systable_getnext(ptr noundef %18) #13
  %.not12 = icmp eq ptr %19, null
  br i1 %.not12, label %22, label %20

20:                                               ; preds = %14
  %21 = call ptr @heap_copytuple(ptr noundef nonnull %19) #13
  br label %22

22:                                               ; preds = %20, %14
  %.010 = phi ptr [ %21, %20 ], [ null, %14 ]
  call void @systable_endscan(ptr noundef %18) #13
  call void @table_close(ptr noundef %11, i32 noundef 1) #13
  call void @llvm.lifetime.end.p0(i64 72, ptr nonnull %4) #13
  ret ptr %.010
}